target datalayout = "e-m:e-p270:32:32-p271:32:32-p272:64:64-i64:64-i128:128-f80:128-n8:16:32:64-S128"
target triple = "x86_64-unknown-linux-gnu"

%struct.DeviceClass = type { %struct.ObjectClass, [1 x i64], ptr, ptr, ptr, i8, i8, ptr, ptr, ptr, ptr, ptr }
%struct.ObjectClass = type { ptr, ptr, [4 x ptr], [4 x ptr], ptr, ptr }
%struct._GPtrArray = type { ptr, i32 }
%struct.GlobalProperty = type { ptr, ptr, ptr, i8, i8 }

@.str.21 = private unnamed_addr constant [7 x i8] c"device\00", align 1
@.str.22 = private unnamed_addr constant [36 x i8] c"global %s.%s has invalid class name\00", align 1
@.str.23 = private unnamed_addr constant [25 x i8] c"global %s.%s=%s not used\00", align 1
@.str.26 = private unnamed_addr constant [101 x i8] c"/home/dtcxzyw/WorkSpace/Projects/compilers/llvm-opt-benchmark/bench/qemu/qemu/include/hw/qdev-core.h\00", align 1
@global_props.gp = internal global ptr null, align 8
@__func__.DEVICE_CLASS = private unnamed_addr constant [13 x i8] c"DEVICE_CLASS\00", align 1

; Function Attrs: nounwind sspstrong uwtable
define internal ptr @DEVICE_CLASS(ptr noundef %klass) #0 {
entry:
  %klass.addr = alloca ptr, align 8
  store ptr %klass, ptr %klass.addr, align 8
  %0 = load ptr, ptr %klass.addr, align 8
  %call = call ptr @object_class_dynamic_cast_assert(ptr noundef %0, ptr noundef @.str.21, ptr noundef @.str.26, i32 noundef 77, ptr noundef @__func__.DEVICE_CLASS)
  ret ptr %call
}

; Function Attrs: nounwind sspstrong uwtable
define internal ptr @global_props() #0 {
entry:
  %0 = load ptr, ptr @global_props.gp, align 8
  %tobool = icmp ne ptr %0, null
  br i1 %tobool, label %if.end, label %if.then

if.then:                                          ; preds = %entry
  %call = call ptr @g_ptr_array_new()
  store ptr %call, ptr @global_props.gp, align 8
  br label %if.end

if.end:                                           ; preds = %if.then, %entry
  %1 = load ptr, ptr @global_props.gp, align 8
  ret ptr %1
}

; Function Attrs: nounwind sspstrong uwtable
define dso_local i32 @qdev_prop_check_globals() #0 {
entry:
  %i = alloca i32, align 4
  %ret = alloca i32, align 4
  %prop = alloca ptr, align 8
  %oc = alloca ptr, align 8
  %dc = alloca ptr, align 8
  store i32 0, ptr %ret, align 4
  store i32 0, ptr %i, align 4
  br label %for.cond

for.cond:                                         ; preds = %for.inc, %entry
  %0 = load i32, ptr %i, align 4
  %call = call ptr @global_props()
  %len = getelementptr inbounds %struct._GPtrArray, ptr %call, i32 0, i32 1
  %1 = load i32, ptr %len, align 8
  %cmp = icmp ult i32 %0, %1
  br i1 %cmp, label %for.body, label %for.end

for.body:                                         ; preds = %for.cond
  %call1 = call ptr @global_props()
  %pdata = getelementptr inbounds %struct._GPtrArray, ptr %call1, i32 0, i32 0
  %2 = load ptr, ptr %pdata, align 8
  %3 = load i32, ptr %i, align 4
  %idxprom = sext i32 %3 to i64
  %arrayidx = getelementptr ptr, ptr %2, i64 %idxprom
  %4 = load ptr, ptr %arrayidx, align 8
  store ptr %4, ptr %prop, align 8
  %5 = load ptr, ptr %prop, align 8
  %used = getelementptr inbounds %struct.GlobalProperty, ptr %5, i32 0, i32 3
  %6 = load i8, ptr %used, align 8
  %tobool = trunc i8 %6 to i1
  br i1 %tobool, label %if.then, label %if.end

if.then:                                          ; preds = %for.body
  br label %for.inc

if.end:                                           ; preds = %for.body
  %7 = load ptr, ptr %prop, align 8
  %driver = getelementptr inbounds %struct.GlobalProperty, ptr %7, i32 0, i32 0
  %8 = load ptr, ptr %driver, align 8
  %call2 = call ptr @object_class_by_name(ptr noundef %8)
  store ptr %call2, ptr %oc, align 8
  %9 = load ptr, ptr %oc, align 8
  %call3 = call ptr @object_class_dynamic_cast(ptr noundef %9, ptr noundef @.str.21)
  store ptr %call3, ptr %oc, align 8
  %10 = load ptr, ptr %oc, align 8
  %tobool4 = icmp ne ptr %10, null
  br i1 %tobool4, label %if.end7, label %if.then5

if.then5:                                         ; preds = %if.end
  %11 = load ptr, ptr %prop, align 8
  %driver6 = getelementptr inbounds %struct.GlobalProperty, ptr %11, i32 0, i32 0
  %12 = load ptr, ptr %driver6, align 8
  %13 = load ptr, ptr %prop, align 8
  %property = getelementptr inbounds %struct.GlobalProperty, ptr %13, i32 0, i32 1
  %14 = load ptr, ptr %property, align 8
  call void (ptr, ...) @warn_report(ptr noundef @.str.22, ptr noundef %12, ptr noundef %14)
  store i32 1, ptr %ret, align 4
  br label %for.inc

if.end7:                                          ; preds = %if.end
  %15 = load ptr, ptr %oc, align 8
  %call8 = call ptr @DEVICE_CLASS(ptr noundef %15)
  store ptr %call8, ptr %dc, align 8
  %16 = load ptr, ptr %dc, align 8
  %hotpluggable = getelementptr inbounds %struct.DeviceClass, ptr %16, i32 0, i32 6
  %17 = load i8, ptr %hotpluggable, align 1
  %tobool9 = trunc i8 %17 to i1
  br i1 %tobool9, label %if.end15, label %land.lhs.true

land.lhs.true:                                    ; preds = %if.end7
  %18 = load ptr, ptr %prop, align 8
  %used10 = getelementptr inbounds %struct.GlobalProperty, ptr %18, i32 0, i32 3
  %19 = load i8, ptr %used10, align 8
  %tobool11 = trunc i8 %19 to i1
  br i1 %tobool11, label %if.end15, label %if.then12

if.then12:                                        ; preds = %land.lhs.true
  %20 = load ptr, ptr %prop, align 8
  %driver13 = getelementptr inbounds %struct.GlobalProperty, ptr %20, i32 0, i32 0
  %21 = load ptr, ptr %driver13, align 8
  %22 = load ptr, ptr %prop, align 8
  %property14 = getelementptr inbounds %struct.GlobalProperty, ptr %22, i32 0, i32 1
  %23 = load ptr, ptr %property14, align 8
  %24 = load ptr, ptr %prop, align 8
  %value = getelementptr inbounds %struct.GlobalProperty, ptr %24, i32 0, i32 2
  %25 = load ptr, ptr %value, align 8
  call void (ptr, ...) @warn_report(ptr noundef @.str.23, ptr noundef %21, ptr noundef %23, ptr noundef %25)
  store i32 1, ptr %ret, align 4
  br label %for.inc

if.end15:                                         ; preds = %land.lhs.true, %if.end7
  br label %for.inc

for.inc:                                          ; preds = %if.end15, %if.then12, %if.then5, %if.then
  %26 = load i32, ptr %i, align 4
  %inc = add i32 %26, 1
  store i32 %inc, ptr %i, align 4
  br label %for.cond, !llvm.loop !15

for.end:                                          ; preds = %for.cond
  %27 = load i32, ptr %ret, align 4
  ret i32 %27
}