; Function Attrs: nounwind sspstrong uwtable
define dso_local range(i32 0, 2) i32 @qdev_prop_check_globals() local_unnamed_addr #0 {
entry:
  br label %for.cond

for.cond:                                         ; preds = %for.inc, %entry
  %ret.0 = phi i32 [ 0, %entry ], [ %ret.1, %for.inc ]
  %i.0 = phi i32 [ 0, %entry ], [ %inc, %for.inc ]
  %0 = load ptr, ptr @global_props.gp, align 8
  %tobool.not.i = icmp eq ptr %0, null
  br i1 %tobool.not.i, label %if.then.i, label %global_props.exit

if.then.i:                                        ; preds = %for.cond
  %call.i = tail call ptr @g_ptr_array_new() #9
  store ptr %call.i, ptr @global_props.gp, align 8
  br label %global_props.exit

global_props.exit:                                ; preds = %for.cond, %if.then.i
  %1 = phi ptr [ %call.i, %if.then.i ], [ %0, %for.cond ]
  %len = getelementptr inbounds nuw i8, ptr %1, i64 8
  %2 = load i32, ptr %len, align 8
  %cmp = icmp ult i32 %i.0, %2
  br i1 %cmp, label %global_props.exit15, label %for.end

global_props.exit15:                              ; preds = %global_props.exit
  %3 = load ptr, ptr %1, align 8
  %idxprom = sext i32 %i.0 to i64
  %arrayidx = getelementptr ptr, ptr %3, i64 %idxprom
  %4 = load ptr, ptr %arrayidx, align 8
  %used = getelementptr inbounds nuw i8, ptr %4, i64 24
  %5 = load i8, ptr %used, align 8
  %tobool = trunc i8 %5 to i1
  br i1 %tobool, label %for.inc, label %if.end

if.end:                                           ; preds = %global_props.exit15
  %6 = load ptr, ptr %4, align 8
  %call2 = tail call ptr @object_class_by_name(ptr noundef %6) #9
  %call3 = tail call ptr @object_class_dynamic_cast(ptr noundef %call2, ptr noundef nonnull @.str.21) #9
  %tobool4.not = icmp eq ptr %call3, null
  br i1 %tobool4.not, label %if.then5, label %if.end7

if.then5:                                         ; preds = %if.end
  %7 = load ptr, ptr %4, align 8
  %property = getelementptr inbounds nuw i8, ptr %4, i64 8
  %8 = load ptr, ptr %property, align 8
  tail call void (ptr, ...) @warn_report(ptr noundef nonnull @.str.22, ptr noundef %7, ptr noundef %8) #9
  br label %for.inc

if.end7:                                          ; preds = %if.end
  %call.i16 = tail call ptr @object_class_dynamic_cast_assert(ptr noundef nonnull %call3, ptr noundef nonnull @.str.21, ptr noundef nonnull @.str.26, i32 noundef 77, ptr noundef nonnull @__func__.DEVICE_CLASS) #9
  %hotpluggable = getelementptr inbounds nuw i8, ptr %call.i16, i64 129
  %9 = load i8, ptr %hotpluggable, align 1
  %tobool9 = trunc i8 %9 to i1
  br i1 %tobool9, label %for.inc, label %land.lhs.true

land.lhs.true:                                    ; preds = %if.end7
  %10 = load i8, ptr %used, align 8
  %tobool11 = trunc i8 %10 to i1
  br i1 %tobool11, label %for.inc, label %if.then12

if.then12:                                        ; preds = %land.lhs.true
  %11 = load ptr, ptr %4, align 8
  %property14 = getelementptr inbounds nuw i8, ptr %4, i64 8
  %12 = load ptr, ptr %property14, align 8
  %value = getelementptr inbounds nuw i8, ptr %4, i64 16
  %13 = load ptr, ptr %value, align 8
  tail call void (ptr, ...) @warn_report(ptr noundef nonnull @.str.23, ptr noundef %11, ptr noundef %12, ptr noundef %13) #9
  br label %for.inc

for.inc:                                          ; preds = %if.end7, %land.lhs.true, %global_props.exit15, %if.then12, %if.then5
  %ret.1 = phi i32 [ %ret.0, %global_props.exit15 ], [ %ret.0, %if.end7 ], [ %ret.0, %land.lhs.true ], [ 1, %if.then12 ], [ 1, %if.then5 ]
  %inc = add nuw i32 %i.0, 1
  br label %for.cond, !llvm.loop !24

for.end:                                          ; preds = %global_props.exit
  ret i32 %ret.0
}